target datalayout = "e-m:e-p270:32:32-p271:32:32-p272:64:64-i64:64-i128:128-f80:128-n8:16:32:64-S128"
target triple = "x86_64-pc-linux-gnu"

%"struct.llvm::LaneBitmask" = type { i64 }
%"struct.llvm::MaskRolOp" = type <{ %"struct.llvm::LaneBitmask", i8, [7 x i8] }>
%"class.llvm::TargetRegisterInfo" = type <{ ptr, %"class.llvm::MCRegisterInfo", ptr, ptr, ptr, ptr, ptr, ptr, %"struct.llvm::LaneBitmask", ptr, ptr, i32, [4 x i8] }>
%"class.llvm::MCRegisterInfo" = type { ptr, i32, %"class.llvm::MCRegister", %"class.llvm::MCRegister", ptr, i32, i32, ptr, ptr, ptr, ptr, ptr, ptr, i32, ptr, i32, i32, i32, i32, ptr, ptr, ptr, ptr, %"class.llvm::DenseMap", %"class.llvm::DenseMap", %"class.std::vector" }
%"class.llvm::MCRegister" = type { i32 }
%"class.llvm::DenseMap" = type <{ ptr, i32, i32, i32, [4 x i8] }>
%"class.std::vector" = type { %"struct.std::_Vector_base" }
%"struct.std::_Vector_base" = type { %"struct.std::_Vector_base<std::vector<unsigned short>, std::allocator<std::vector<unsigned short>>>::_Vector_impl" }
%"struct.std::_Vector_base<std::vector<unsigned short>, std::allocator<std::vector<unsigned short>>>::_Vector_impl" = type { %"struct.std::_Vector_base<std::vector<unsigned short>, std::allocator<std::vector<unsigned short>>>::_Vector_impl_data" }
%"struct.std::_Vector_base<std::vector<unsigned short>, std::allocator<std::vector<unsigned short>>>::_Vector_impl_data" = type { ptr, ptr, ptr }

@_ZN4llvmL18CompositeSequencesE = internal constant [52 x i8] c"\00\00\02\04\06\08\0A\0C\0E\10\12\14\00\04\08\0C\00\08\00\00\00\02\02\04\00\00\00\00\02\02\02\02\04\04\04\04\06\06\06\06\08\08\08\0A\0A\0C\00\00\00\04\04\08", align 16

; Function Attrs: mustprogress nounwind uwtable
define linkonce_odr hidden noundef nonnull align 8 dereferenceable(8) ptr @_ZN4llvm11LaneBitmaskoRES0_(ptr noundef nonnull align 8 dereferenceable(8) %0, i64 %1) #0 comdat align 2 {
  %3 = alloca %"struct.llvm::LaneBitmask", align 8
  %4 = alloca ptr, align 8
  %5 = getelementptr inbounds nuw %"struct.llvm::LaneBitmask", ptr %3, i32 0, i32 0
  store i64 %1, ptr %5, align 8
  store ptr %0, ptr %4, align 8
  %6 = load ptr, ptr %4, align 8
  %7 = getelementptr inbounds nuw %"struct.llvm::LaneBitmask", ptr %3, i32 0, i32 0
  %8 = load i64, ptr %7, align 8
  %9 = getelementptr inbounds nuw %"struct.llvm::LaneBitmask", ptr %6, i32 0, i32 0
  %10 = load i64, ptr %9, align 8
  %11 = or i64 %10, %8
  store i64 %11, ptr %9, align 8
  ret ptr %6
}

; Function Attrs: mustprogress nounwind uwtable
define linkonce_odr hidden void @_ZN4llvm11LaneBitmaskC2Em(ptr noundef nonnull align 8 dereferenceable(8) %0, i64 noundef %1) unnamed_addr #0 comdat align 2 {
  %3 = alloca ptr, align 8
  %4 = alloca i64, align 8
  store ptr %0, ptr %3, align 8
  store i64 %1, ptr %4, align 8
  %5 = load ptr, ptr %3, align 8
  %6 = getelementptr inbounds nuw %"struct.llvm::LaneBitmask", ptr %5, i32 0, i32 0
  %7 = load i64, ptr %4, align 8
  store i64 %7, ptr %6, align 8
  ret void
}

; Function Attrs: mustprogress nounwind uwtable
define linkonce_odr hidden noundef i64 @_ZNK4llvm11LaneBitmask12getAsIntegerEv(ptr noundef nonnull align 8 dereferenceable(8) %0) #0 comdat align 2 {
  %2 = alloca ptr, align 8
  store ptr %0, ptr %2, align 8
  %3 = load ptr, ptr %2, align 8
  %4 = getelementptr inbounds nuw %"struct.llvm::LaneBitmask", ptr %3, i32 0, i32 0
  %5 = load i64, ptr %4, align 8
  ret i64 %5
}

; Function Attrs: mustprogress nounwind uwtable
define linkonce_odr hidden noundef zeroext i1 @_ZNK4llvm11LaneBitmask3anyEv(ptr noundef nonnull align 8 dereferenceable(8) %0) #0 comdat align 2 {
  %2 = alloca ptr, align 8
  store ptr %0, ptr %2, align 8
  %3 = load ptr, ptr %2, align 8
  %4 = getelementptr inbounds nuw %"struct.llvm::LaneBitmask", ptr %3, i32 0, i32 0
  %5 = load i64, ptr %4, align 8
  %6 = icmp ne i64 %5, 0
  ret i1 %6
}

; Function Attrs: mustprogress nounwind uwtable
define linkonce_odr hidden void @_ZN4llvm11LaneBitmaskC2Ev(ptr noundef nonnull align 8 dereferenceable(8) %0) unnamed_addr #0 comdat align 2 {
  %2 = alloca ptr, align 8
  store ptr %0, ptr %2, align 8
  %3 = load ptr, ptr %2, align 8
  %4 = getelementptr inbounds nuw %"struct.llvm::LaneBitmask", ptr %3, i32 0, i32 0
  store i64 0, ptr %4, align 8
  ret void
}

; Function Attrs: mustprogress nounwind uwtable
define linkonce_odr hidden noundef nonnull align 8 dereferenceable(8) ptr @_ZN4llvm11LaneBitmaskaNES0_(ptr noundef nonnull align 8 dereferenceable(8) %0, i64 %1) #0 comdat align 2 {
  %3 = alloca %"struct.llvm::LaneBitmask", align 8
  %4 = alloca ptr, align 8
  %5 = getelementptr inbounds nuw %"struct.llvm::LaneBitmask", ptr %3, i32 0, i32 0
  store i64 %1, ptr %5, align 8
  store ptr %0, ptr %4, align 8
  %6 = load ptr, ptr %4, align 8
  %7 = getelementptr inbounds nuw %"struct.llvm::LaneBitmask", ptr %3, i32 0, i32 0
  %8 = load i64, ptr %7, align 8
  %9 = getelementptr inbounds nuw %"struct.llvm::LaneBitmask", ptr %6, i32 0, i32 0
  %10 = load i64, ptr %9, align 8
  %11 = and i64 %10, %8
  store i64 %11, ptr %9, align 8
  ret ptr %6
}

; Function Attrs: mustprogress nounwind uwtable
define linkonce_odr hidden i64 @_ZNK4llvm18TargetRegisterInfo22getSubRegIndexLaneMaskEj(ptr noundef nonnull align 8 dereferenceable(308) %0, i32 noundef %1) #0 comdat align 2 {
  %3 = alloca %"struct.llvm::LaneBitmask", align 8
  %4 = alloca ptr, align 8
  %5 = alloca i32, align 4
  store ptr %0, ptr %4, align 8
  store i32 %1, ptr %5, align 4
  %6 = load ptr, ptr %4, align 8
  %7 = getelementptr inbounds nuw %"class.llvm::TargetRegisterInfo", ptr %6, i32 0, i32 5
  %8 = load ptr, ptr %7, align 8
  %9 = load i32, ptr %5, align 4
  %10 = zext i32 %9 to i64
  %11 = getelementptr inbounds %"struct.llvm::LaneBitmask", ptr %8, i64 %10
  call void @llvm.memcpy.p0.p0.i64(ptr align 8 %3, ptr align 8 %11, i64 8, i1 false)
  %12 = getelementptr inbounds nuw %"struct.llvm::LaneBitmask", ptr %3, i32 0, i32 0
  %13 = load i64, ptr %12, align 8
  ret i64 %13
}

; Function Attrs: mustprogress nounwind uwtable
define dso_local i64 @_ZNK4llvm20RISCVGenRegisterInfo37reverseComposeSubRegIndexLaneMaskImplEjNS_11LaneBitmaskE(ptr noundef nonnull align 8 dereferenceable(308) %0, i32 noundef %1, i64 %2) unnamed_addr #0 align 2 {
  %4 = alloca %"struct.llvm::LaneBitmask", align 8
  %5 = alloca %"struct.llvm::LaneBitmask", align 8
  %6 = alloca ptr, align 8
  %7 = alloca i32, align 4
  %8 = alloca %"struct.llvm::LaneBitmask", align 8
  %9 = alloca ptr, align 8
  %10 = alloca i64, align 8
  %11 = alloca i32, align 4
  %12 = alloca %"struct.llvm::LaneBitmask", align 8
  %13 = alloca %"struct.llvm::LaneBitmask", align 8
  %14 = getelementptr inbounds nuw %"struct.llvm::LaneBitmask", ptr %5, i32 0, i32 0
  store i64 %2, ptr %14, align 8
  store ptr %0, ptr %6, align 8
  store i32 %1, ptr %7, align 4
  %15 = load ptr, ptr %6, align 8
  %16 = load i32, ptr %7, align 4
  %17 = call i64 @_ZNK4llvm18TargetRegisterInfo22getSubRegIndexLaneMaskEj(ptr noundef nonnull align 8 dereferenceable(308) %15, i32 noundef %16)
  %18 = getelementptr inbounds nuw %"struct.llvm::LaneBitmask", ptr %8, i32 0, i32 0
  store i64 %17, ptr %18, align 8
  %19 = getelementptr inbounds nuw %"struct.llvm::LaneBitmask", ptr %8, i32 0, i32 0
  %20 = load i64, ptr %19, align 8
  %21 = call noundef nonnull align 8 dereferenceable(8) ptr @_ZN4llvm11LaneBitmaskaNES0_(ptr noundef nonnull align 8 dereferenceable(8) %5, i64 %20)
  %22 = load i32, ptr %7, align 4
  %23 = add i32 %22, -1
  store i32 %23, ptr %7, align 4
  call void @_ZN4llvm11LaneBitmaskC2Ev(ptr noundef nonnull align 8 dereferenceable(8) %4) #3
  %24 = load i32, ptr %7, align 4
  %25 = zext i32 %24 to i64
  %26 = getelementptr inbounds [52 x i8], ptr @_ZN4llvmL18CompositeSequencesE, i64 0, i64 %25
  %27 = load i8, ptr %26, align 1
  %28 = zext i8 %27 to i64
  %29 = getelementptr inbounds [22 x %"struct.llvm::MaskRolOp"], ptr @_ZN4llvmL24LaneMaskComposeSequencesE, i64 0, i64 %28
  store ptr %29, ptr %9, align 8
  br label %30

30:                                               ; preds = %62, %3
  %31 = load ptr, ptr %9, align 8
  %32 = getelementptr inbounds nuw %"struct.llvm::MaskRolOp", ptr %31, i32 0, i32 0
  %33 = call noundef zeroext i1 @_ZNK4llvm11LaneBitmask3anyEv(ptr noundef nonnull align 8 dereferenceable(8) %32)
  br i1 %33, label %34, label %65

34:                                               ; preds = %30
  %35 = call noundef i64 @_ZNK4llvm11LaneBitmask12getAsIntegerEv(ptr noundef nonnull align 8 dereferenceable(8) %5)
  store i64 %35, ptr %10, align 8
  %36 = load ptr, ptr %9, align 8
  %37 = getelementptr inbounds nuw %"struct.llvm::MaskRolOp", ptr %36, i32 0, i32 1
  %38 = load i8, ptr %37, align 8
  %39 = zext i8 %38 to i32
  store i32 %39, ptr %11, align 4
  %40 = load i32, ptr %11, align 4
  %41 = icmp ne i32 %40, 0
  br i1 %41, label %42, label %56

42:                                               ; preds = %34
  %43 = load i64, ptr %10, align 8
  %44 = load i32, ptr %11, align 4
  %45 = zext i32 %44 to i64
  %46 = lshr i64 %43, %45
  %47 = load i64, ptr %10, align 8
  %48 = load i32, ptr %11, align 4
  %49 = sub i32 64, %48
  %50 = zext i32 %49 to i64
  %51 = shl i64 %47, %50
  %52 = or i64 %46, %51
  call void @_ZN4llvm11LaneBitmaskC2Em(ptr noundef nonnull align 8 dereferenceable(8) %12, i64 noundef %52)
  %53 = getelementptr inbounds nuw %"struct.llvm::LaneBitmask", ptr %12, i32 0, i32 0
  %54 = load i64, ptr %53, align 8
  %55 = call noundef nonnull align 8 dereferenceable(8) ptr @_ZN4llvm11LaneBitmaskoRES0_(ptr noundef nonnull align 8 dereferenceable(8) %4, i64 %54)
  br label %61

56:                                               ; preds = %34
  %57 = load i64, ptr %10, align 8
  call void @_ZN4llvm11LaneBitmaskC2Em(ptr noundef nonnull align 8 dereferenceable(8) %13, i64 noundef %57)
  %58 = getelementptr inbounds nuw %"struct.llvm::LaneBitmask", ptr %13, i32 0, i32 0
  %59 = load i64, ptr %58, align 8
  %60 = call noundef nonnull align 8 dereferenceable(8) ptr @_ZN4llvm11LaneBitmaskoRES0_(ptr noundef nonnull align 8 dereferenceable(8) %4, i64 %59)
  br label %61

61:                                               ; preds = %56, %42
  br label %62

62:                                               ; preds = %61
  %63 = load ptr, ptr %9, align 8
  %64 = getelementptr inbounds %"struct.llvm::MaskRolOp", ptr %63, i32 1
  store ptr %64, ptr %9, align 8
  br label %30, !llvm.loop !6

65:                                               ; preds = %30
  %66 = getelementptr inbounds nuw %"struct.llvm::LaneBitmask", ptr %4, i32 0, i32 0
  %67 = load i64, ptr %66, align 8
  ret i64 %67
}