; Function Attrs: mustprogress nofree norecurse nosync nounwind willreturn memory(read, inaccessiblemem: none) uwtable
define dso_local i64 @_ZNK4llvm20RISCVGenRegisterInfo37reverseComposeSubRegIndexLaneMaskImplEjNS_11LaneBitmaskE(ptr nocapture noundef nonnull readonly align 8 dereferenceable(308) %0, i32 noundef %1, i64 %2) unnamed_addr #1 align 2 {
  %4 = getelementptr inbounds nuw i8, ptr %0, i64 256
  %5 = load ptr, ptr %4, align 8
  %6 = zext i32 %1 to i64
  %7 = getelementptr inbounds %"struct.llvm::LaneBitmask", ptr %5, i64 %6
  %.sroa.0.0.copyload.i = load i64, ptr %7, align 8
  %8 = and i64 %.sroa.0.0.copyload.i, %2
  %9 = add i32 %1, -1
  %10 = zext i32 %9 to i64
  %11 = getelementptr inbounds [52 x i8], ptr @_ZN4llvmL18CompositeSequencesE, i64 0, i64 %10
  %12 = load i8, ptr %11, align 1
  %13 = zext i8 %12 to i64
  %14 = getelementptr inbounds [22 x %"struct.llvm::MaskRolOp"], ptr @_ZN4llvmL24LaneMaskComposeSequencesE, i64 0, i64 %13
  %15 = load i64, ptr %14, align 16
  %.not1920 = icmp eq i64 %15, 0
  br i1 %.not1920, label %._crit_edge, label %.lr.ph

.lr.ph:                                           ; preds = %3, %25
  %.022 = phi ptr [ %26, %25 ], [ %14, %3 ]
  %.sroa.016.021 = phi i64 [ %.sroa.016.1, %25 ], [ 0, %3 ]
  %16 = getelementptr inbounds nuw i8, ptr %.022, i64 8
  %17 = load i8, ptr %16, align 8
  %.not = icmp eq i8 %17, 0
  br i1 %.not, label %25, label %18

18:                                               ; preds = %.lr.ph
  %19 = zext i8 %17 to i64
  %20 = lshr i64 %8, %19
  %21 = sub nsw i64 64, %19
  %22 = and i64 %21, 4294967295
  %23 = shl i64 %8, %22
  %24 = or i64 %23, %20
  br label %25

25:                                               ; preds = %.lr.ph, %18
  %.pn = phi i64 [ %24, %18 ], [ %8, %.lr.ph ]
  %.sroa.016.1 = or i64 %.pn, %.sroa.016.021
  %26 = getelementptr inbounds i8, ptr %.022, i64 16
  %27 = load i64, ptr %26, align 8
  %.not19 = icmp eq i64 %27, 0
  br i1 %.not19, label %._crit_edge, label %.lr.ph, !llvm.loop !6

._crit_edge:                                      ; preds = %25, %3
  %.sroa.016.0.lcssa = phi i64 [ 0, %3 ], [ %.sroa.016.1, %25 ]
  ret i64 %.sroa.016.0.lcssa
}